target datalayout = "e-m:e-p270:32:32-p271:32:32-p272:64:64-i64:64-i128:128-f80:128-n8:16:32:64-S128"
target triple = "x86_64-pc-linux-gnu"

%struct.ec_group_st = type { ptr, ptr, ptr, ptr, i32, i32, i32, i32, ptr, i64, ptr, [6 x i32], ptr, ptr, i32, ptr, ptr, ptr, ptr, i32, %union.anon.2, ptr, ptr }
%union.anon.2 = type { ptr }
%struct.ecpk_parameters_st = type { i32, %union.anon }
%union.anon = type { ptr }

@ECPKPARAMETERS_it.local_it = internal constant { i8, [7 x i8], i64, ptr, i64, ptr, i64, ptr } { i8 2, [7 x i8] zeroinitializer, i64 0, ptr @ECPKPARAMETERS_ch_tt, i64 3, ptr null, i64 16, ptr @.str.1 }, align 8

; Function Attrs: nounwind uwtable
define ptr @ECPKPARAMETERS_it() #0 {
  ret ptr @ECPKPARAMETERS_it.local_it
}

; Function Attrs: nounwind uwtable
define void @ECPKPARAMETERS_free(ptr noundef %0) #0 {
  %2 = alloca ptr, align 8
  store ptr %0, ptr %2, align 8, !tbaa !18
  %3 = load ptr, ptr %2, align 8, !tbaa !18
  %4 = call ptr @ECPKPARAMETERS_it()
  call void @ASN1_item_free(ptr noundef %3, ptr noundef %4)
  ret void
}

; Function Attrs: nounwind uwtable
define ptr @d2i_ECPKPARAMETERS(ptr noundef %0, ptr noundef %1, i64 noundef %2) #0 {
  %4 = alloca ptr, align 8
  %5 = alloca ptr, align 8
  %6 = alloca i64, align 8
  store ptr %0, ptr %4, align 8, !tbaa !12
  store ptr %1, ptr %5, align 8, !tbaa !14
  store i64 %2, ptr %6, align 8, !tbaa !16
  %7 = load ptr, ptr %4, align 8, !tbaa !12
  %8 = load ptr, ptr %5, align 8, !tbaa !14
  %9 = load i64, ptr %6, align 8, !tbaa !16
  %10 = call ptr @ECPKPARAMETERS_it()
  %11 = call ptr @ASN1_item_d2i(ptr noundef %7, ptr noundef %8, i64 noundef %9, ptr noundef %10)
  ret ptr %11
}

; Function Attrs: nounwind uwtable
define ptr @d2i_ECPKParameters(ptr noundef %0, ptr noundef %1, i64 noundef %2) #0 {
  %4 = alloca ptr, align 8
  %5 = alloca ptr, align 8
  %6 = alloca ptr, align 8
  %7 = alloca i64, align 8
  %8 = alloca ptr, align 8
  %9 = alloca ptr, align 8
  %10 = alloca ptr, align 8
  %11 = alloca i32, align 4
  store ptr %0, ptr %5, align 8, !tbaa !76
  store ptr %1, ptr %6, align 8, !tbaa !14
  store i64 %2, ptr %7, align 8, !tbaa !16
  call void @llvm.lifetime.start.p0(i64 8, ptr %8) #4
  store ptr null, ptr %8, align 8, !tbaa !24
  call void @llvm.lifetime.start.p0(i64 8, ptr %9) #4
  store ptr null, ptr %9, align 8, !tbaa !18
  call void @llvm.lifetime.start.p0(i64 8, ptr %10) #4
  %12 = load ptr, ptr %6, align 8, !tbaa !14
  %13 = load ptr, ptr %12, align 8, !tbaa !26
  store ptr %13, ptr %10, align 8, !tbaa !26
  %14 = load i64, ptr %7, align 8, !tbaa !16
  %15 = call ptr @d2i_ECPKPARAMETERS(ptr noundef null, ptr noundef %10, i64 noundef %14)
  store ptr %15, ptr %9, align 8, !tbaa !18
  %16 = icmp eq ptr %15, null
  br i1 %16, label %17, label %19

17:                                               ; preds = %3
  %18 = load ptr, ptr %9, align 8, !tbaa !18
  call void @ECPKPARAMETERS_free(ptr noundef %18)
  store ptr null, ptr %4, align 8
  store i32 1, ptr %11, align 4
  br label %46

19:                                               ; preds = %3
  %20 = load ptr, ptr %9, align 8, !tbaa !18
  %21 = call ptr @EC_GROUP_new_from_ecpkparameters(ptr noundef %20)
  store ptr %21, ptr %8, align 8, !tbaa !24
  %22 = icmp eq ptr %21, null
  br i1 %22, label %23, label %25

23:                                               ; preds = %19
  %24 = load ptr, ptr %9, align 8, !tbaa !18
  call void @ECPKPARAMETERS_free(ptr noundef %24)
  store ptr null, ptr %4, align 8
  store i32 1, ptr %11, align 4
  br label %46

25:                                               ; preds = %19
  %26 = load ptr, ptr %9, align 8, !tbaa !18
  %27 = getelementptr inbounds nuw %struct.ecpk_parameters_st, ptr %26, i32 0, i32 0
  %28 = load i32, ptr %27, align 8, !tbaa !68
  %29 = icmp eq i32 %28, 1
  br i1 %29, label %30, label %33

30:                                               ; preds = %25
  %31 = load ptr, ptr %8, align 8, !tbaa !24
  %32 = getelementptr inbounds nuw %struct.ec_group_st, ptr %31, i32 0, i32 6
  store i32 1, ptr %32, align 8, !tbaa !78
  br label %33

33:                                               ; preds = %30, %25
  %34 = load ptr, ptr %5, align 8, !tbaa !76
  %35 = icmp ne ptr %34, null
  br i1 %35, label %36, label %41

36:                                               ; preds = %33
  %37 = load ptr, ptr %5, align 8, !tbaa !76
  %38 = load ptr, ptr %37, align 8, !tbaa !24
  call void @EC_GROUP_free(ptr noundef %38)
  %39 = load ptr, ptr %8, align 8, !tbaa !24
  %40 = load ptr, ptr %5, align 8, !tbaa !76
  store ptr %39, ptr %40, align 8, !tbaa !24
  br label %41

41:                                               ; preds = %36, %33
  %42 = load ptr, ptr %9, align 8, !tbaa !18
  call void @ECPKPARAMETERS_free(ptr noundef %42)
  %43 = load ptr, ptr %10, align 8, !tbaa !26
  %44 = load ptr, ptr %6, align 8, !tbaa !14
  store ptr %43, ptr %44, align 8, !tbaa !26
  %45 = load ptr, ptr %8, align 8, !tbaa !24
  store ptr %45, ptr %4, align 8
  store i32 1, ptr %11, align 4
  br label %46

46:                                               ; preds = %41, %23, %17
  call void @llvm.lifetime.end.p0(i64 8, ptr %10) #4
  call void @llvm.lifetime.end.p0(i64 8, ptr %9) #4
  call void @llvm.lifetime.end.p0(i64 8, ptr %8) #4
  %47 = load ptr, ptr %4, align 8
  ret ptr %47
}