; Function Attrs: nounwind uwtable
define ptr @d2i_ECPKParameters(ptr noundef captures(address_is_null) %0, ptr noundef captures(none) %1, i64 noundef %2) local_unnamed_addr #0 {
  %4 = alloca ptr, align 8
  call void @llvm.lifetime.start.p0(i64 8, ptr nonnull %4) #8
  %5 = load ptr, ptr %1, align 8, !tbaa !3
  store ptr %5, ptr %4, align 8, !tbaa !3
  %6 = call ptr @ASN1_item_d2i(ptr noundef null, ptr noundef nonnull %4, i64 noundef %2, ptr noundef nonnull @ECPKPARAMETERS_it.local_it) #8
  %7 = icmp eq ptr %6, null
  br i1 %7, label %8, label %9

8:                                                ; preds = %3
  call void @ASN1_item_free(ptr noundef null, ptr noundef nonnull @ECPKPARAMETERS_it.local_it) #8
  br label %23

9:                                                ; preds = %3
  %10 = call ptr @EC_GROUP_new_from_ecpkparameters(ptr noundef nonnull %6)
  %11 = icmp eq ptr %10, null
  br i1 %11, label %12, label %13

12:                                               ; preds = %9
  call void @ASN1_item_free(ptr noundef nonnull %6, ptr noundef nonnull @ECPKPARAMETERS_it.local_it) #8
  br label %23

13:                                               ; preds = %9
  %14 = load i32, ptr %6, align 8, !tbaa !44
  %15 = icmp eq i32 %14, 1
  br i1 %15, label %16, label %18

16:                                               ; preds = %13
  %17 = getelementptr inbounds nuw i8, ptr %10, i64 40
  store i32 1, ptr %17, align 8, !tbaa !49
  br label %18

18:                                               ; preds = %16, %13
  %.not = icmp eq ptr %0, null
  br i1 %.not, label %21, label %19

19:                                               ; preds = %18
  %20 = load ptr, ptr %0, align 8, !tbaa !50
  call void @EC_GROUP_free(ptr noundef %20) #8
  store ptr %10, ptr %0, align 8, !tbaa !50
  br label %21

21:                                               ; preds = %19, %18
  call void @ASN1_item_free(ptr noundef nonnull %6, ptr noundef nonnull @ECPKPARAMETERS_it.local_it) #8
  %22 = load ptr, ptr %4, align 8, !tbaa !3
  store ptr %22, ptr %1, align 8, !tbaa !3
  br label %23

23:                                               ; preds = %21, %12, %8
  %.0 = phi ptr [ null, %8 ], [ null, %12 ], [ %10, %21 ]
  call void @llvm.lifetime.end.p0(i64 8, ptr nonnull %4) #8
  ret ptr %.0
}